; Function Attrs: mustprogress nounwind uwtable
define internal void @"_ZZN4node10BaseObject8MakeWeakEvEN3$_08__invokeERKN2v816WeakCallbackInfoIS0_EE"(ptr nocapture noundef nonnull readonly align 8 dereferenceable(40) %data) #3 align 2 {
entry:
  %0 = getelementptr inbounds i8, ptr %data, i64 8
  %data.val = load ptr, ptr %0, align 8
  %persistent_handle_.i = getelementptr inbounds i8, ptr %data.val, i64 8
  %1 = load ptr, ptr %persistent_handle_.i, align 8
  %cmp.i.i.i = icmp eq ptr %1, null
  br i1 %cmp.i.i.i, label %do.body.i, label %if.end.i.i

if.end.i.i:                                       ; preds = %entry
  tail call void @_ZN2v812api_internal13DisposeGlobalEPm(ptr noundef nonnull %1) #17
  store ptr null, ptr %persistent_handle_.i, align 8
  br label %do.body.i

do.body.i:                                        ; preds = %if.end.i.i, %entry
  %pointer_data_.i.i = getelementptr inbounds i8, ptr %data.val, i64 24
  %2 = load ptr, ptr %pointer_data_.i.i, align 8
  %cmp.i.not.i = icmp eq ptr %2, null
  br i1 %cmp.i.not.i, label %"_ZZN4node10BaseObject8MakeWeakEvENK3$_0clERKN2v816WeakCallbackInfoIS0_EE.exit", label %_ZN4node10BaseObject12pointer_dataEv.exit.i

_ZN4node10BaseObject12pointer_dataEv.exit.i:      ; preds = %do.body.i
  %3 = load i32, ptr %2, align 8
  %cmp.not.i = icmp eq i32 %3, 0
  br i1 %cmp.not.i, label %"_ZZN4node10BaseObject8MakeWeakEvENK3$_0clERKN2v816WeakCallbackInfoIS0_EE.exit", label %do.body6.i

do.body6.i:                                       ; preds = %_ZN4node10BaseObject12pointer_dataEv.exit.i
  tail call void @_ZN4node6AssertERKNS_13AssertionInfoE(ptr noundef nonnull align 8 dereferenceable(24) @"_ZZZN4node10BaseObject8MakeWeakEvENK3$_0clERKN2v816WeakCallbackInfoIS0_EEE4args") #17
  tail call void @abort() #18
  unreachable

"_ZZN4node10BaseObject8MakeWeakEvENK3$_0clERKN2v816WeakCallbackInfoIS0_EE.exit": ; preds = %do.body.i, %_ZN4node10BaseObject12pointer_dataEv.exit.i
  %vtable.i = load ptr, ptr %data.val, align 8
  %vfn.i = getelementptr inbounds i8, ptr %vtable.i, i64 120
  %4 = load ptr, ptr %vfn.i, align 8
  tail call void %4(ptr noundef nonnull align 8 dereferenceable(32) %data.val) #17
  ret void
}